; Function Attrs: mustprogress nounwind uwtable
define dso_local noundef ptr @_ZN4llvm9MDBuilder12createFPMathEf(ptr nocapture noundef nonnull readonly align 8 dereferenceable(8) %0, float noundef %1) local_unnamed_addr #0 align 2 {
  %3 = alloca ptr, align 8
  %4 = fcmp oeq float %1, 0.000000e+00
  br i1 %4, label %13, label %5

5:                                                ; preds = %2
  %6 = fpext float %1 to double
  %7 = load ptr, ptr %0, align 8
  %8 = tail call noundef ptr @_ZN4llvm4Type10getFloatTyERNS_11LLVMContextE(ptr noundef nonnull align 8 dereferenceable(8) %7) #8
  %9 = tail call noundef ptr @_ZN4llvm10ConstantFP3getEPNS_4TypeEd(ptr noundef %8, double noundef %6) #8
  %10 = tail call noundef ptr @_ZN4llvm15ValueAsMetadata3getEPNS_5ValueE(ptr noundef %9) #8
  %11 = load ptr, ptr %0, align 8
  store ptr %10, ptr %3, align 8
  %12 = call noundef ptr @_ZN4llvm7MDTuple7getImplERNS_11LLVMContextENS_8ArrayRefIPNS_8MetadataEEENS4_11StorageTypeEb(ptr noundef nonnull align 8 dereferenceable(8) %11, ptr nonnull %3, i64 1, i32 noundef 0, i1 noundef zeroext true) #8
  br label %13

13:                                               ; preds = %2, %5
  %.0 = phi ptr [ %12, %5 ], [ null, %2 ]
  ret ptr %.0
}